; Function Attrs: nounwind uwtable
define internal noundef zeroext i1 @X11_WarpMouseGlobal(float noundef %0, float noundef %1) #0 {
  %3 = tail call ptr @SDL_GetVideoDevice() #5
  %4 = tail call zeroext i1 @X11_WarpMouseXTest(ptr noundef %3, ptr noundef null, float noundef %0, float noundef %1) #5
  br i1 %4, label %21, label %5

5:                                                ; preds = %2
  %6 = tail call ptr @SDL_GetVideoDevice() #5
  %7 = getelementptr inbounds nuw i8, ptr %6, i64 1656
  %8 = load ptr, ptr %7, align 8
  %9 = load ptr, ptr %8, align 8
  %10 = getelementptr inbounds nuw i8, ptr %9, i64 232
  %11 = load ptr, ptr %10, align 8
  %12 = tail call ptr @SDL_GetVideoDevice() #5
  %13 = getelementptr inbounds nuw i8, ptr %12, i64 1656
  %14 = load ptr, ptr %13, align 8
  %15 = load ptr, ptr %14, align 8
  %16 = getelementptr inbounds nuw i8, ptr %15, i64 224
  %17 = load i32, ptr %16, align 8
  %18 = sext i32 %17 to i64
  %19 = getelementptr inbounds %struct.Screen, ptr %11, i64 %18, i32 2
  %20 = load i64, ptr %19, align 8
  tail call fastcc void @X11_WarpMouseInternal(i64 noundef %20, float noundef %0, float noundef %1)
  br label %21

21:                                               ; preds = %2, %5
  ret i1 true
}